; Function Attrs: nounwind uwtable
define dso_local range(i32 0, 2) i32 @list_delete_item(ptr noundef readonly captures(none) %0) #0 {
  %2 = tail call ptr @list_remove(ptr noundef %0)
  %.not = icmp eq ptr %2, null
  br i1 %.not, label %9, label %3

3:                                                ; preds = %1
  %4 = getelementptr inbounds nuw i8, ptr %0, i64 8
  %5 = load ptr, ptr %4, align 8
  %6 = getelementptr inbounds nuw i8, ptr %5, i64 32
  %7 = load ptr, ptr %6, align 8
  %.not6 = icmp eq ptr %7, null
  br i1 %.not6, label %9, label %8

8:                                                ; preds = %3
  tail call void %7(ptr noundef nonnull %2) #9
  br label %9

9:                                                ; preds = %1, %3, %8
  %.0 = phi i32 [ 1, %8 ], [ 1, %3 ], [ 0, %1 ]
  ret i32 %.0
}